###############################################################################
#                                                                             #
# IAR ELF Linker V6.60.1.5097/W32 for ARM               13/Oct/2013  23:06:40 #
# Copyright 2007-2013 IAR Systems AB.                                         #
#                                                                             #
#    Output file  =  D:\qp\qpc\examples\arm-cm\qk\iar\dpp-qk_ek-tm4c123gxl\db #
#                    g\dpp-qk.out                                             #
#    Map file     =  D:\qp\qpc\examples\arm-cm\qk\iar\dpp-qk_ek-tm4c123gxl\db #
#                    g\dpp-qk.map                                             #
#    Command line =  D:\qp\qpc\examples\arm-cm\qk\iar\dpp-qk_ek-tm4c123gxl\db #
#                    g\bsp.o D:\qp\qpc\examples\arm-cm\qk\iar\dpp-qk_ek-tm4c1 #
#                    23gxl\dbg\main.o D:\qp\qpc\examples\arm-cm\qk\iar\dpp-qk #
#                    _ek-tm4c123gxl\dbg\philo.o D:\qp\qpc\examples\arm-cm\qk\ #
#                    iar\dpp-qk_ek-tm4c123gxl\dbg\startup_tm4c.o              #
#                    D:\qp\qpc\examples\arm-cm\qk\iar\dpp-qk_ek-tm4c123gxl\db #
#                    g\table.o --redirect _Printf=_PrintfTiny --redirect      #
#                    _Scanf=_ScanfSmall -o D:\qp\qpc\examples\arm-cm\qk\iar\d #
#                    pp-qk_ek-tm4c123gxl\dbg\dpp-qk.out --map                 #
#                    D:\qp\qpc\examples\arm-cm\qk\iar\dpp-qk_ek-tm4c123gxl\db #
#                    g\dpp-qk.map --config D:\qp\qpc\examples\arm-cm\qk\iar\d #
#                    pp-qk_ek-tm4c123gxl\tm4c123gh6pm.icf --semihosting       #
#                    D:\qp\qpc\ports\arm-cm\qk\iar\dbg\libqp_cortex-m4f.a     #
#                    --entry __iar_program_start --vfe                        #
#                                                                             #
#                                                                             #
###############################################################################

*******************************************************************************
*** RUNTIME MODEL ATTRIBUTES
***

CppFlavor       = *
__SystemLibrary = DLib


*******************************************************************************
*** PLACEMENT SUMMARY
***

"A1":  place at start of [0x00000000-0x0003ffff] { ro section .intvec };
"P1":  place in [from 0x00000000 to 0x0003ffff] { ro };
"P2":  place in [from 0x20000000 to 0x20007fff] { rw, block HEAP };

  Section            Kind        Address    Size  Object
  -------            ----        -------    ----  ------
"A1":                                      0x26c
  .intvec            const    0x00000000   0x26c  startup_tm4c.o [1]
                            - 0x0000026c   0x26c

"P1":                                     0x1b9c
  .text              ro code  0x0000026c   0x4ec  table.o [1]
  .text              ro code  0x00000758    0x28  qa_ctor.o [4]
  .text              ro code  0x00000780    0x88  qa_sub.o [4]
  .text              ro code  0x00000808   0x37c  bsp.o [1]
  .text              ro code  0x00000b84    0x7c  qf_new.o [4]
  .text              ro code  0x00000c00    0xb8  qf_pspub.o [4]
  .text              ro code  0x00000cb8    0xd4  qhsm_ini.o [4]
  .text              ro code  0x00000d8c    0xc8  qf_tick.o [4]
  .text              ro code  0x00000e54    0x50  qmp_get.o [4]
  .text              ro code  0x00000ea4    0x60  qf_gc.o [4]
  .text              ro code  0x00000f04    0x50  qmp_put.o [4]
  .text              ro code  0x00000f54   0x258  qhsm_dis.o [4]
  .text              ro code  0x000011ac   0x22c  philo.o [1]
  .text              ro code  0x000013d8    0x44  qte_ctor.o [4]
  .text              ro code  0x0000141c    0x7c  qte_arm.o [4]
  .text              ro code  0x00001498    0xe4  qk_sched.o [4]
  .text              ro code  0x0000157c    0xb4  qa_get_.o [4]
  .text              ro code  0x00001630    0xe4  qa_fifo.o [4]
  .rodata            const    0x00001714    0xcc  qf_pwr2.o [4]
  .text              ro code  0x000017e0    0xc4  qa_lifo.o [4]
  .text              ro code  0x000018a4    0xa0  qk.o [4]
  CODE               ro code  0x00001944    0x74  qk_port.o [4]
  .text              ro code  0x000019b8    0x1a  qeq_init.o [4]
  .text              ro code  0x000019d2    0x2e  copy_init3.o [6]
  .text              ro code  0x00001a00    0x4c  qf_act.o [4]
  .text              ro code  0x00001a4c    0x9c  qmp_init.o [4]
  .text              ro code  0x00001ae8    0x94  main.o [1]
  .text              ro code  0x00001b7c    0x14  qf_psini.o [4]
  .text              ro code  0x00001b90    0x78  qf_pool.o [4]
  .rodata            const    0x00001c08    0x40  philo.o [1]
  .rodata            const    0x00001c48    0x40  table.o [1]
  .text              ro code  0x00001c88    0x28  data_init.o [6]
  .text              ro code  0x00001cb0    0x24  startup_tm4c.o [1]
  .text              ro code  0x00001cd4    0x22  zero_init3.o [6]
  .iar.init_table    const    0x00001cf8    0x24  - Linker created -
  .text              ro code  0x00001d1c    0x1a  fpinit_M.o [5]
  .text              ro code  0x00001d38    0x1a  cmain.o [6]
  .text              ro code  0x00001d52     0x4  low_level_init.o [3]
  .text              ro code  0x00001d56     0x4  exit.o [3]
  .text              ro code  0x00001d5c     0xa  cexit.o [6]
  .text              ro code  0x00001d68    0x14  exit.o [7]
  .rodata            const    0x00001d7c    0x14  philo.o [1]
  .rodata            const    0x00001d90    0x14  startup_tm4c.o [1]
  .rodata            const    0x00001da4    0x10  qep.o [4]
  .rodata            const    0x00001db4     0xc  startup_tm4c.o [1]
  .rodata            const    0x00001dc0     0xc  table.o [1]
  .rodata            const    0x00001dcc     0xc  table.o [1]
  .rodata            const    0x00001dd8     0xc  table.o [1]
  .text              ro code  0x00001de4     0xc  cstartup_M.o [6]
  .rodata            const    0x00001df0     0x4  bsp.o [1]
  .rodata            const    0x00001df4     0x4  bsp.o [1]
  .rodata            const    0x00001df8     0x4  table.o [1]
  .text              ro code  0x00001dfc     0x4  qhsm_top.o [4]
  .rodata            const    0x00001e00     0x0  zero_init3.o [6]
  .rodata            const    0x00001e00     0x0  copy_init3.o [6]
  Initializer bytes  ro data  0x00001e00     0x8  <for P2 s0>
                            - 0x00001e08  0x1b9c

"P2", part 1 of 3:                           0x8
  P2 s0                       0x20000000     0x8  <Init block>
    .data            inited   0x20000000     0x4  bsp.o [1]
    .data            inited   0x20000004     0x1  qk.o [4]
                            - 0x20000008     0x8

"P2", part 2 of 3:                         0x304
  .bss               zero     0x20000008    0xf0  philo.o [1]
  .bss               zero     0x200000f8    0x84  qf_act.o [4]
  .bss               zero     0x2000017c    0x64  main.o [1]
  .bss               zero     0x200001e0    0x50  main.o [1]
  .bss               zero     0x20000230    0x3c  qf_pool.o [4]
  .bss               zero     0x2000026c    0x2c  table.o [1]
  .bss               zero     0x20000298    0x20  main.o [1]
  .bss               zero     0x200002b8    0x20  qf_tick.o [4]
  .bss               zero     0x200002d8    0x14  main.o [1]
  .bss               zero     0x200002ec     0xc  qk.o [4]
  .bss               zero     0x200002f8     0x4  bsp.o [1]
  .bss               zero     0x200002fc     0x4  qf_pool.o [4]
  .bss               zero     0x20000300     0x4  qf_psini.o [4]
  .bss               zero     0x20000304     0x4  qf_psini.o [4]
  .bss               zero     0x20000308     0x1  bsp.o [1]
  .bss               zero     0x20000309     0x1  philo.o [1]
  .bss               zero     0x2000030a     0x1  qk.o [4]
  .bss               zero     0x2000030b     0x1  qk_mutex.o [4]
                            - 0x2000030c   0x304

"P2", part 3 of 3:                         0x400
  .noinit            uninit   0x2000030c   0x400  startup_tm4c.o [1]
                            - 0x2000070c   0x400


*******************************************************************************
*** INIT TABLE
***

          Address     Size
          -------     ----
Zero (__iar_zero_init3)
    1 destination range, total size 0x304:
          0x20000008  0x304

Copy (__iar_copy_init3)
    1 source range, total size 0x8 (160% of destination):
          0x00001e00    0x8
    1 destination range, total size 0x5:
          0x20000000    0x5



*******************************************************************************
*** MODULE SUMMARY
***

    Module            ro code  ro data  rw data
    ------            -------  -------  -------
D:\qp\qpc\examples\arm-cm\qk\iar\dpp-qk_ek-tm4c123gxl\dbg: [1]
    bsp.o                 892       12        9
    main.o                148               232
    philo.o               556       84      241
    startup_tm4c.o         36      652    1 024
    table.o             1 260      104       44
    -------------------------------------------
    Total:              2 892      852    1 550

command line: [2]
    -------------------------------------------
    Total:

dl7M_tln.a: [3]
    exit.o                  4
    low_level_init.o        4
    -------------------------------------------
    Total:                  8

libqp_cortex-m4f.a: [4]
    qa_ctor.o              40
    qa_fifo.o             228
    qa_get_.o             180
    qa_lifo.o             196
    qa_sub.o              136
    qep.o                           16
    qeq_init.o             26
    qf_act.o               76               132
    qf_gc.o                96
    qf_new.o              124
    qf_pool.o             120                64
    qf_psini.o             20                 8
    qf_pspub.o            184
    qf_pwr2.o                      204
    qf_tick.o             200                32
    qhsm_dis.o            600
    qhsm_ini.o            212
    qhsm_top.o              4
    qk.o                  160        1       14
    qk_mutex.o                                1
    qk_port.o             116
    qk_sched.o            228
    qmp_get.o              80
    qmp_init.o            156
    qmp_put.o              80
    qte_arm.o             124
    qte_ctor.o             68
    -------------------------------------------
    Total:              3 454      221      251

m7M_tlv.a: [5]
    fpinit_M.o             26
    -------------------------------------------
    Total:                 26

rt7M_tl.a: [6]
    cexit.o                10
    cmain.o                26
    copy_init3.o           46
    cstartup_M.o           12
    data_init.o            40
    zero_init3.o           34
    -------------------------------------------
    Total:                168

shb_l.a: [7]
    exit.o                 20
    -------------------------------------------
    Total:                 20

    Gaps                    6        2
    Linker created                  39
-----------------------------------------------
    Grand Total:        6 574    1 114    1 801


*******************************************************************************
*** ENTRY LIST
***

Entry                    Address   Size  Type      Object
-----                    -------   ----  ----      ------
?main                 0x00001d39         Code  Gb  cmain.o [6]
AO_Philo              0x00001d7c   0x14  Data  Gb  philo.o [1]
AO_Table              0x00001df8    0x4  Data  Gb  table.o [1]
BSP_displayPaused     0x00000a39   0x12  Code  Gb  bsp.o [1]
BSP_displayPhilStat   0x00000a27   0x12  Code  Gb  bsp.o [1]
BSP_init              0x000009a1   0x86  Code  Gb  bsp.o [1]
BSP_random            0x00000a4d   0x2c  Code  Gb  bsp.o [1]
BSP_randomSeed        0x00000a79    0x6  Code  Gb  bsp.o [1]
BSP_terminate         0x00000a7f    0x2  Code  Gb  bsp.o [1]
GPIOPortA_IRQHandler  0x0000094d   0x54  Code  Gb  bsp.o [1]
HardFault_Handler     0x00001cbf    0xe  Code  Gb  startup_tm4c.o [1]
NMI_Handler           0x00001cb1    0xe  Code  Gb  startup_tm4c.o [1]
NVIC_EnableIRQ        0x00000827   0x18  Code  Lc  bsp.o [1]
NVIC_SetPriority      0x0000083f   0x22  Code  Lc  bsp.o [1]
NVIC_SetPriorityGrouping
                      0x00000809   0x1e  Code  Lc  bsp.o [1]
PendSV_Handler        0x00001965         Code  Gb  qk_port.o [4]
Philo_ctor            0x000011ad   0x36  Code  Gb  philo.o [1]
Philo_eating          0x00001321   0xa0  Code  Lc  philo.o [1]
Philo_hungry          0x00001289   0x98  Code  Lc  philo.o [1]
Philo_initial         0x000011e5   0x26  Code  Lc  philo.o [1]
Philo_thinking        0x0000120d   0x7a  Code  Lc  philo.o [1]
QActive_ctor          0x00000759   0x12  Code  Gb  qa_ctor.o [4]
QActive_get_          0x0000157d   0x9e  Code  Gb  qa_get_.o [4]
QActive_post          0x00001631   0xcc  Code  Gb  qa_fifo.o [4]
QActive_postLIFO      0x000017e1   0xac  Code  Gb  qa_lifo.o [4]
QActive_start         0x000018e9   0x58  Code  Gb  qk.o [4]
QActive_subscribe     0x00000781   0x6a  Code  Gb  qa_sub.o [4]
QEP_reservedEvt_      0x00001da4   0x10  Data  Gb  qep.o [4]
QEQueue_init          0x000019b9   0x1a  Code  Gb  qeq_init.o [4]
QF_active_            0x200000f8   0x84  Data  Gb  qf_act.o [4]
QF_add_               0x00001a01   0x3e  Code  Gb  qf_act.o [4]
QF_div8Lkup           0x0000179c   0x44  Data  Gb  qf_pwr2.o [4]
QF_gc                 0x00000ea5   0x50  Code  Gb  qf_gc.o [4]
QF_init               0x000018a5    0x8  Code  Gb  qk.o [4]
QF_invPwr2Lkup        0x00001758   0x44  Data  Gb  qf_pwr2.o [4]
QF_maxPool_           0x200002fc    0x4  Data  Gb  qf_pool.o [4]
QF_maxSignal_         0x20000304    0x4  Data  Gb  qf_psini.o [4]
QF_newX_              0x00000b85   0x6c  Code  Gb  qf_new.o [4]
QF_onStartup          0x00000a81   0x38  Code  Gb  bsp.o [1]
QF_poolInit           0x00001b91   0x68  Code  Gb  qf_pool.o [4]
QF_pool_              0x20000230   0x3c  Data  Gb  qf_pool.o [4]
QF_psInit             0x00001b7d   0x14  Code  Gb  qf_psini.o [4]
QF_publish            0x00000c01   0x9c  Code  Gb  qf_pspub.o [4]
QF_pwr2Lkup           0x00001714   0x44  Data  Gb  qf_pwr2.o [4]
QF_run                0x000018cd   0x1c  Code  Gb  qk.o [4]
QF_subscrList_        0x20000300    0x4  Data  Gb  qf_psini.o [4]
QF_tickX              0x00000d8d   0xbc  Code  Gb  qf_tick.o [4]
QF_timeEvtHead_       0x200002b8   0x20  Data  Gb  qf_tick.o [4]
QHsm_ctor             0x00000cb9    0xe  Code  Gb  qhsm_ini.o [4]
QHsm_dispatch         0x00000f55  0x23a  Code  Gb  qhsm_dis.o [4]
QHsm_init             0x00000cc7   0xa2  Code  Gb  qhsm_ini.o [4]
QHsm_top              0x00001dfd    0x4  Code  Gb  qhsm_top.o [4]
QK_ceilingPrio_       0x2000030b    0x1  Data  Gb  qk_mutex.o [4]
QK_currPrio_          0x20000004    0x1  Data  Gb  qk.o [4]
QK_init               0x00001945         Code  Gb  qk_port.o [4]
QK_intNest_           0x2000030a    0x1  Data  Gb  qk.o [4]
QK_onIdle             0x00000ab9   0x32  Code  Gb  bsp.o [1]
QK_readySet_          0x200002ec    0xc  Data  Gb  qk.o [4]
QK_schedPrio_         0x00001499   0x4c  Code  Gb  qk_sched.o [4]
QK_sched_             0x000014e5   0x88  Code  Gb  qk_sched.o [4]
QMPool_get            0x00000e55   0x46  Code  Gb  qmp_get.o [4]
QMPool_init           0x00001a4d   0x90  Code  Gb  qmp_init.o [4]
QMPool_put            0x00000f05   0x48  Code  Gb  qmp_put.o [4]
QTimeEvt_armX         0x0000141d   0x6e  Code  Gb  qte_arm.o [4]
QTimeEvt_ctorX        0x000013d9   0x36  Code  Gb  qte_ctor.o [4]
Q_onAssert            0x00000b6d    0x8  Code  Gb  bsp.o [1]
Q_this_module_        0x00001c08   0x40  Data  Lc  philo.o [1]
Q_this_module_        0x00001c48   0x40  Data  Lc  table.o [1]
Q_this_module_        0x00000bf8    0x8  Data  Lc  qf_new.o [4]
Q_this_module_        0x00000cac    0xc  Data  Lc  qf_pspub.o [4]
Q_this_module_        0x00000e4c    0x8  Data  Lc  qf_tick.o [4]
Q_this_module_        0x00001940    0x4  Data  Lc  qk.o [4]
Q_this_module_        0x00001c00    0x8  Data  Lc  qf_pool.o [4]
Q_this_module_        0x00000800    0x8  Data  Lc  qa_sub.o [4]
Q_this_module_        0x00001490    0x8  Data  Lc  qte_arm.o [4]
Q_this_module_        0x00001410    0xc  Data  Lc  qte_ctor.o [4]
Q_this_module_        0x00000e9c    0x8  Data  Lc  qmp_get.o [4]
Q_this_module_        0x00001a44    0x8  Data  Lc  qf_act.o [4]
Q_this_module_        0x00000efc    0x8  Data  Lc  qf_gc.o [4]
Q_this_module_        0x00001adc    0xc  Data  Lc  qmp_init.o [4]
Q_this_module_        0x0000170c    0x8  Data  Lc  qa_fifo.o [4]
Q_this_module_        0x0000189c    0x8  Data  Lc  qa_lifo.o [4]
Q_this_module_        0x00000d78    0xc  Data  Lc  qhsm_ini.o [4]
Q_this_module_        0x000011a0    0xc  Data  Lc  qhsm_dis.o [4]
Q_this_module_        0x00000f4c    0x8  Data  Lc  qmp_put.o [4]
Q_this_module_        0x00001628    0x8  Data  Lc  qa_get_.o [4]
Region$$Table$$Base   0x00001cf8          --   Gb  - Linker created -
Region$$Table$$Limit  0x00001d1c          --   Gb  - Linker created -
SVC_Handler           0x000019a7         Code  Gb  qk_port.o [4]
SysTick_Config        0x00000861   0x30  Code  Lc  bsp.o [1]
SysTick_Handler       0x00000891   0xbc  Code  Gb  bsp.o [1]
Table_active          0x000002f7   0x3c  Code  Lc  table.o [1]
Table_ctor            0x0000026d   0x34  Code  Gb  table.o [1]
Table_initial         0x000002a1   0x56  Code  Lc  table.o [1]
Table_paused          0x00000631  0x108  Code  Lc  table.o [1]
Table_serving         0x00000335  0x2fa  Code  Lc  table.o [1]
__cmain               0x00001d39         Code  Gb  cmain.o [6]
__exit                0x00001d69   0x14  Code  Gb  exit.o [7]
__iar_copy_init3      0x000019d3   0x2e  Code  Gb  copy_init3.o [6]
__iar_data_init3      0x00001c89   0x28  Code  Gb  data_init.o [6]
__iar_init_vfp        0x00001d1d         Code  Gb  fpinit_M.o [5]
__iar_program_start   0x00001de5         Code  Gb  cstartup_M.o [6]
__iar_zero_init3      0x00001cd5   0x22  Code  Gb  zero_init3.o [6]
__low_level_init      0x00001d53    0x4  Code  Gb  low_level_init.o [3]
__vector_table        0x00000000  0x26c  Data  Gb  startup_tm4c.o [1]
_call_main            0x00001d45         Code  Gb  cmain.o [6]
_exit                 0x00001d5d         Code  Gb  cexit.o [6]
_main                 0x00001d4f         Code  Gb  cmain.o [6]
assert_failed         0x00000b75   0x10  Code  Gb  bsp.o [1]
exit                  0x00001d57    0x4  Code  Gb  exit.o [3]
initialize            0x000018ad   0x1a  Code  Lc  qk.o [4]
l_philo               0x20000008   0xf0  Data  Lc  philo.o [1]
l_philoQueueSto       0x2000017c   0x64  Data  Lc  main.o [1]
l_rnd                 0x200002f8    0x4  Data  Lc  bsp.o [1]
l_smlPoolSto          0x200001e0   0x50  Data  Lc  main.o [1]
l_subscrSto           0x20000298   0x20  Data  Lc  main.o [1]
l_table               0x2000026c   0x2c  Data  Lc  table.o [1]
l_tableQueueSto       0x200002d8   0x14  Data  Lc  main.o [1]
main                  0x00001ae9   0x94  Code  Gb  main.o [1]
pulStack              0x2000030c  0x400  Data  Lc  startup_tm4c.o [1]


[1] = D:\qp\qpc\examples\arm-cm\qk\iar\dpp-qk_ek-tm4c123gxl\dbg
[2] = command line
[3] = dl7M_tln.a
[4] = libqp_cortex-m4f.a
[5] = m7M_tlv.a
[6] = rt7M_tl.a
[7] = shb_l.a

  6 574 bytes of readonly  code memory
  1 114 bytes of readonly  data memory
  1 801 bytes of readwrite data memory

Errors: none
Warnings: none
