Archive member included because of file (symbol)

D:\qp\qpc/ports/arm-cm/vanilla/gnu/dbg\libqp_cortex-m4f_cs.a(qhsm_top.o)
                              dbg/blinky.o (QHsm_top)
D:\qp\qpc/ports/arm-cm/vanilla/gnu/dbg\libqp_cortex-m4f_cs.a(qa_ctor.o)
                              dbg/blinky.o (QActive_ctor)
D:\qp\qpc/ports/arm-cm/vanilla/gnu/dbg\libqp_cortex-m4f_cs.a(qa_fifo.o)
                              D:\qp\qpc/ports/arm-cm/vanilla/gnu/dbg\libqp_cortex-m4f_cs.a(qa_ctor.o) (QActive_post)
D:\qp\qpc/ports/arm-cm/vanilla/gnu/dbg\libqp_cortex-m4f_cs.a(qa_lifo.o)
                              D:\qp\qpc/ports/arm-cm/vanilla/gnu/dbg\libqp_cortex-m4f_cs.a(qa_ctor.o) (QActive_postLIFO)
D:\qp\qpc/ports/arm-cm/vanilla/gnu/dbg\libqp_cortex-m4f_cs.a(qf_pwr2.o)
                              D:\qp\qpc/ports/arm-cm/vanilla/gnu/dbg\libqp_cortex-m4f_cs.a(qa_fifo.o) (QF_div8Lkup)
D:\qp\qpc/ports/arm-cm/vanilla/gnu/dbg\libqp_cortex-m4f_cs.a(qf_tick.o)
                              dbg/bsp.o (QF_tickX)
D:\qp\qpc/ports/arm-cm/vanilla/gnu/dbg\libqp_cortex-m4f_cs.a(qte_ctor.o)
                              dbg/blinky.o (QTimeEvt_ctorX)
D:\qp\qpc/ports/arm-cm/vanilla/gnu/dbg\libqp_cortex-m4f_cs.a(qte_arm.o)
                              dbg/blinky.o (QTimeEvt_armX)
D:\qp\qpc/ports/arm-cm/vanilla/gnu/dbg\libqp_cortex-m4f_cs.a(qvanilla.o)
                              dbg/blinky.o (QF_init)
D:\qp\qpc/ports/arm-cm/vanilla/gnu/dbg\libqp_cortex-m4f_cs.a(qhsm_ini.o)
                              D:\qp\qpc/ports/arm-cm/vanilla/gnu/dbg\libqp_cortex-m4f_cs.a(qa_ctor.o) (QHsm_init)
D:\qp\qpc/ports/arm-cm/vanilla/gnu/dbg\libqp_cortex-m4f_cs.a(qhsm_dis.o)
                              D:\qp\qpc/ports/arm-cm/vanilla/gnu/dbg\libqp_cortex-m4f_cs.a(qa_ctor.o) (QHsm_dispatch)
D:\qp\qpc/ports/arm-cm/vanilla/gnu/dbg\libqp_cortex-m4f_cs.a(qa_get_.o)
                              D:\qp\qpc/ports/arm-cm/vanilla/gnu/dbg\libqp_cortex-m4f_cs.a(qvanilla.o) (QActive_get_)
D:\qp\qpc/ports/arm-cm/vanilla/gnu/dbg\libqp_cortex-m4f_cs.a(qeq_init.o)
                              D:\qp\qpc/ports/arm-cm/vanilla/gnu/dbg\libqp_cortex-m4f_cs.a(qvanilla.o) (QEQueue_init)
D:\qp\qpc/ports/arm-cm/vanilla/gnu/dbg\libqp_cortex-m4f_cs.a(qf_act.o)
                              D:\qp\qpc/ports/arm-cm/vanilla/gnu/dbg\libqp_cortex-m4f_cs.a(qvanilla.o) (QF_add_)
D:\qp\qpc/ports/arm-cm/vanilla/gnu/dbg\libqp_cortex-m4f_cs.a(qf_gc.o)
                              D:\qp\qpc/ports/arm-cm/vanilla/gnu/dbg\libqp_cortex-m4f_cs.a(qvanilla.o) (QF_gc)
D:\qp\qpc/ports/arm-cm/vanilla/gnu/dbg\libqp_cortex-m4f_cs.a(qf_pool.o)
                              D:\qp\qpc/ports/arm-cm/vanilla/gnu/dbg\libqp_cortex-m4f_cs.a(qf_gc.o) (QF_maxPool_)
D:\qp\qpc/ports/arm-cm/vanilla/gnu/dbg\libqp_cortex-m4f_cs.a(qmp_init.o)
                              D:\qp\qpc/ports/arm-cm/vanilla/gnu/dbg\libqp_cortex-m4f_cs.a(qf_pool.o) (QMPool_init)
D:\qp\qpc/ports/arm-cm/vanilla/gnu/dbg\libqp_cortex-m4f_cs.a(qmp_put.o)
                              D:\qp\qpc/ports/arm-cm/vanilla/gnu/dbg\libqp_cortex-m4f_cs.a(qf_gc.o) (QMPool_put)
D:\qp\qpc/ports/arm-cm/vanilla/gnu/dbg\libqp_cortex-m4f_cs.a(qep.o)
                              D:\qp\qpc/ports/arm-cm/vanilla/gnu/dbg\libqp_cortex-m4f_cs.a(qhsm_ini.o) (QEP_reservedEvt_)

Memory Configuration

Name             Origin             Length             Attributes
ROM              0x00000000         0x00040000         xr
RAM              0x20000000         0x00008000         xrw
*default*        0x00000000         0xffffffff

Linker script and memory map

LOAD dbg/blinky.o
LOAD dbg/bsp.o
LOAD dbg/startup_tm4c.o
LOAD D:\qp\qpc/ports/arm-cm/vanilla/gnu/dbg\libqp_cortex-m4f_cs.a
                0x000003e8                STACK_SIZE = 0x3e8
                0x00000000                HEAP_SIZE = 0x0

.isr_vector     0x00000000       0xf0
 *(.isr_vector)
 .isr_vector    0x00000000       0xf0 dbg/startup_tm4c.o
                0x00000000                g_pfnVectors
                0x000000f0                . = ALIGN (0x4)

.text           0x000000f0      0xe90
                0x000000f0                . = ALIGN (0x4)
 *(.text)
 .text          0x000000f0       0xf0 dbg/blinky.o
                0x00000178                Blinky_ctor
                0x0000019c                main
 .text          0x000001e0      0x148 dbg/bsp.o
                0x000001e0                SysTick_Handler
                0x000001ec                BSP_init
                0x00000284                BSP_ledOff
                0x00000294                BSP_ledOn
                0x000002a4                QF_onStartup
                0x0000030c                QF_onCleanup
                0x00000310                QF_onIdle
                0x00000318                Q_onAssert
                0x00000320                assert_failed
 .text          0x00000328       0xb4 dbg/startup_tm4c.o
                0x00000328                DebugMon_Handler
                0x00000328                FlashCtrl_IRQHandler
                0x00000328                Timer0B_IRQHandler
                0x00000328                I2C0_IRQHandler
                0x00000328                PendSV_Handler
                0x00000328                NMI_Handler
                0x00000328                I2C1_IRQHandler
                0x00000328                PWMGen0_IRQHandler
                0x00000328                UART1_IRQHandler
                0x00000328                CAN1_IRQHandler
                0x00000328                Timer1B_IRQHandler
                0x00000328                Watchdog_IRQHandler
                0x00000328                UART0_IRQHandler
                0x00000328                SSI0_IRQHandler
                0x00000328                UsageFault_Handler
                0x00000328                ADCSeq1_IRQHandler
                0x00000328                PWMFault_IRQHandler
                0x00000328                PWMGen1_IRQHandler
                0x00000328                SSI1_IRQHandler
                0x00000328                SysCtrl_IRQHandler
                0x00000328                Spurious_Handler
                0x00000328                GPIOPortC_IRQHandler
                0x00000328                ADCSeq2_IRQHandler
                0x00000328                PWMGen2_IRQHandler
                0x00000328                UART2_IRQHandler
                0x00000328                QEI1_IRQHandler
                0x00000328                QEI0_IRQHandler
                0x00000328                GPIOPortD_IRQHandler
                0x00000328                MemManage_Handler
                0x00000328                Ethernet_IRQHandler
                0x00000328                SVC_Handler
                0x00000328                Timer3B_IRQHandler
                0x00000328                Timer3A_IRQHandler
                0x00000328                GPIOPortA_IRQHandler
                0x00000328                Timer0A_IRQHandler
                0x00000328                ADCSeq0_IRQHandler
                0x00000328                Timer1A_IRQHandler
                0x00000328                GPIOPortG_IRQHandler
                0x00000328                ADCSeq3_IRQHandler
                0x00000328                GPIOPortE_IRQHandler
                0x00000328                CAN0_IRQHandler
                0x00000328                Comp0_IRQHandler
                0x00000328                Comp1_IRQHandler
                0x00000328                Comp2_IRQHandler
                0x00000328                GPIOPortF_IRQHandler
                0x00000328                GPIOPortB_IRQHandler
                0x00000328                CAN2_IRQHandler
                0x00000328                GPIOPortH_IRQHandler
                0x00000328                BusFault_Handler
                0x00000328                Timer2A_IRQHandler
                0x00000328                Timer2B_IRQHandler
                0x00000328                Hibernate_IRQHandler
                0x00000344                Reset_Handler
                0x000003d8                _init
 .text          0x000003dc        0x8 D:\qp\qpc/ports/arm-cm/vanilla/gnu/dbg\libqp_cortex-m4f_cs.a(qhsm_top.o)
                0x000003dc                QHsm_top
 .text          0x000003e4       0x14 D:\qp\qpc/ports/arm-cm/vanilla/gnu/dbg\libqp_cortex-m4f_cs.a(qa_ctor.o)
                0x000003e4                QActive_ctor
 .text          0x000003f8       0xbc D:\qp\qpc/ports/arm-cm/vanilla/gnu/dbg\libqp_cortex-m4f_cs.a(qa_fifo.o)
                0x000003f8                QActive_post
 .text          0x000004b4       0x98 D:\qp\qpc/ports/arm-cm/vanilla/gnu/dbg\libqp_cortex-m4f_cs.a(qa_lifo.o)
                0x000004b4                QActive_postLIFO
 .text          0x0000054c        0x0 D:\qp\qpc/ports/arm-cm/vanilla/gnu/dbg\libqp_cortex-m4f_cs.a(qf_pwr2.o)
 .text          0x0000054c       0xf0 D:\qp\qpc/ports/arm-cm/vanilla/gnu/dbg\libqp_cortex-m4f_cs.a(qf_tick.o)
                0x0000054c                QF_tickX
                0x00000600                QF_noTimeEvtsActiveX
 .text          0x0000063c       0x34 D:\qp\qpc/ports/arm-cm/vanilla/gnu/dbg\libqp_cortex-m4f_cs.a(qte_ctor.o)
                0x0000063c                QTimeEvt_ctorX
 .text          0x00000670       0x64 D:\qp\qpc/ports/arm-cm/vanilla/gnu/dbg\libqp_cortex-m4f_cs.a(qte_arm.o)
                0x00000670                QTimeEvt_armX
 .text          0x000006d4       0xd0 D:\qp\qpc/ports/arm-cm/vanilla/gnu/dbg\libqp_cortex-m4f_cs.a(qvanilla.o)
                0x000006d4                QF_init
                0x000006d8                QF_stop
                0x000006e0                QF_run
                0x00000754                QActive_start
                0x0000079c                QActive_stop
 .text          0x000007a4       0xdc D:\qp\qpc/ports/arm-cm/vanilla/gnu/dbg\libqp_cortex-m4f_cs.a(qhsm_ini.o)
                0x000007a4                QHsm_init
                0x0000086c                QHsm_ctor
 .text          0x00000880      0x218 D:\qp\qpc/ports/arm-cm/vanilla/gnu/dbg\libqp_cortex-m4f_cs.a(qhsm_dis.o)
                0x00000880                QHsm_dispatch
 .text          0x00000a98       0xd4 D:\qp\qpc/ports/arm-cm/vanilla/gnu/dbg\libqp_cortex-m4f_cs.a(qa_get_.o)
                0x00000a98                QActive_get_
                0x00000b34                QF_getQueueMin
 .text          0x00000b6c       0x1c D:\qp\qpc/ports/arm-cm/vanilla/gnu/dbg\libqp_cortex-m4f_cs.a(qeq_init.o)
                0x00000b6c                QEQueue_init
 .text          0x00000b88       0x84 D:\qp\qpc/ports/arm-cm/vanilla/gnu/dbg\libqp_cortex-m4f_cs.a(qf_act.o)
                0x00000b88                QF_add_
                0x00000bc8                QF_remove_
 .text          0x00000c0c       0x60 D:\qp\qpc/ports/arm-cm/vanilla/gnu/dbg\libqp_cortex-m4f_cs.a(qf_gc.o)
                0x00000c0c                QF_gc
 .text          0x00000c6c       0x70 D:\qp\qpc/ports/arm-cm/vanilla/gnu/dbg\libqp_cortex-m4f_cs.a(qf_pool.o)
                0x00000c6c                QF_poolInit
 .text          0x00000cdc       0xac D:\qp\qpc/ports/arm-cm/vanilla/gnu/dbg\libqp_cortex-m4f_cs.a(qmp_init.o)
                0x00000cdc                QMPool_init
 .text          0x00000d88       0x54 D:\qp\qpc/ports/arm-cm/vanilla/gnu/dbg\libqp_cortex-m4f_cs.a(qmp_put.o)
                0x00000d88                QMPool_put
 .text          0x00000ddc        0x0 D:\qp\qpc/ports/arm-cm/vanilla/gnu/dbg\libqp_cortex-m4f_cs.a(qep.o)
 *(.text*)
 *(.rodata)
 .rodata        0x00000ddc       0x14 D:\qp\qpc/ports/arm-cm/vanilla/gnu/dbg\libqp_cortex-m4f_cs.a(qa_ctor.o)
 .rodata        0x00000df0        0x8 D:\qp\qpc/ports/arm-cm/vanilla/gnu/dbg\libqp_cortex-m4f_cs.a(qa_fifo.o)
 .rodata        0x00000df8        0x8 D:\qp\qpc/ports/arm-cm/vanilla/gnu/dbg\libqp_cortex-m4f_cs.a(qa_lifo.o)
 .rodata        0x00000e00       0xcc D:\qp\qpc/ports/arm-cm/vanilla/gnu/dbg\libqp_cortex-m4f_cs.a(qf_pwr2.o)
                0x00000e00                QF_div8Lkup
                0x00000e44                QF_invPwr2Lkup
                0x00000e88                QF_pwr2Lkup
 .rodata        0x00000ecc        0x8 D:\qp\qpc/ports/arm-cm/vanilla/gnu/dbg\libqp_cortex-m4f_cs.a(qf_tick.o)
 .rodata        0x00000ed4        0xc D:\qp\qpc/ports/arm-cm/vanilla/gnu/dbg\libqp_cortex-m4f_cs.a(qte_ctor.o)
 .rodata        0x00000ee0        0x8 D:\qp\qpc/ports/arm-cm/vanilla/gnu/dbg\libqp_cortex-m4f_cs.a(qte_arm.o)
 .rodata        0x00000ee8        0xc D:\qp\qpc/ports/arm-cm/vanilla/gnu/dbg\libqp_cortex-m4f_cs.a(qvanilla.o)
 .rodata        0x00000ef4       0x14 D:\qp\qpc/ports/arm-cm/vanilla/gnu/dbg\libqp_cortex-m4f_cs.a(qhsm_ini.o)
 .rodata        0x00000f08        0xc D:\qp\qpc/ports/arm-cm/vanilla/gnu/dbg\libqp_cortex-m4f_cs.a(qhsm_dis.o)
 .rodata        0x00000f14        0x8 D:\qp\qpc/ports/arm-cm/vanilla/gnu/dbg\libqp_cortex-m4f_cs.a(qa_get_.o)
 .rodata        0x00000f1c        0x8 D:\qp\qpc/ports/arm-cm/vanilla/gnu/dbg\libqp_cortex-m4f_cs.a(qf_act.o)
 .rodata        0x00000f24        0x8 D:\qp\qpc/ports/arm-cm/vanilla/gnu/dbg\libqp_cortex-m4f_cs.a(qf_gc.o)
 .rodata        0x00000f2c        0x8 D:\qp\qpc/ports/arm-cm/vanilla/gnu/dbg\libqp_cortex-m4f_cs.a(qf_pool.o)
 .rodata        0x00000f34        0xc D:\qp\qpc/ports/arm-cm/vanilla/gnu/dbg\libqp_cortex-m4f_cs.a(qmp_init.o)
 .rodata        0x00000f40        0x8 D:\qp\qpc/ports/arm-cm/vanilla/gnu/dbg\libqp_cortex-m4f_cs.a(qmp_put.o)
 .rodata        0x00000f48       0x10 D:\qp\qpc/ports/arm-cm/vanilla/gnu/dbg\libqp_cortex-m4f_cs.a(qep.o)
                0x00000f48                QEP_reservedEvt_
 *(.rodata*)
 .rodata.str1.4
                0x00000f58       0x28 dbg/startup_tm4c.o
 *(.init)
 *(.fini)
                0x00000f80                . = ALIGN (0x4)

.glue_7         0x00000f80        0x0
 .glue_7        0x00000000        0x0 linker stubs

.glue_7t        0x00000f80        0x0
 .glue_7t       0x00000000        0x0 linker stubs

.vfp11_veneer   0x00000f80        0x0
 .vfp11_veneer  0x00000000        0x0 linker stubs

.v4_bx          0x00000f80        0x0
 .v4_bx         0x00000000        0x0 linker stubs

.iplt           0x00000f80        0x0
 .iplt          0x00000000        0x0 dbg/blinky.o

.rel.dyn        0x00000f80        0x0
 .rel.iplt      0x00000000        0x0 dbg/blinky.o

.preinit_array  0x00000f80        0x0
                0x00000f80                PROVIDE (__preinit_array_start, .)
 *(.preinit_array*)
                0x00000f80                PROVIDE (__preinit_array_end, .)

.init_array     0x00000f80        0x0
                0x00000f80                PROVIDE (__init_array_start, .)
 *(SORT(.init_array.*))
 *(.init_array*)
                0x00000f80                PROVIDE (__init_array_end, .)

.fini_array     0x00000f80        0x0
                0x00000f80                PROVIDE (__fini_array_start, .)
 *(.fini_array*)
 *(SORT(.fini_array.*))
                0x00000f80                PROVIDE (__fini_array_end, .)
                0x00000f80                _etext = .

.data           0x20000000        0x0 load address 0x00000f80
                0x00000f80                __data_load = LOADADDR (.data)
                0x20000000                __data_start = .
 *(.data)
 .data          0x20000000        0x0 dbg/blinky.o
 .data          0x20000000        0x0 dbg/bsp.o
 .data          0x20000000        0x0 dbg/startup_tm4c.o
 .data          0x20000000        0x0 D:\qp\qpc/ports/arm-cm/vanilla/gnu/dbg\libqp_cortex-m4f_cs.a(qhsm_top.o)
 .data          0x20000000        0x0 D:\qp\qpc/ports/arm-cm/vanilla/gnu/dbg\libqp_cortex-m4f_cs.a(qa_ctor.o)
 .data          0x20000000        0x0 D:\qp\qpc/ports/arm-cm/vanilla/gnu/dbg\libqp_cortex-m4f_cs.a(qa_fifo.o)
 .data          0x20000000        0x0 D:\qp\qpc/ports/arm-cm/vanilla/gnu/dbg\libqp_cortex-m4f_cs.a(qa_lifo.o)
 .data          0x20000000        0x0 D:\qp\qpc/ports/arm-cm/vanilla/gnu/dbg\libqp_cortex-m4f_cs.a(qf_pwr2.o)
 .data          0x20000000        0x0 D:\qp\qpc/ports/arm-cm/vanilla/gnu/dbg\libqp_cortex-m4f_cs.a(qf_tick.o)
 .data          0x20000000        0x0 D:\qp\qpc/ports/arm-cm/vanilla/gnu/dbg\libqp_cortex-m4f_cs.a(qte_ctor.o)
 .data          0x20000000        0x0 D:\qp\qpc/ports/arm-cm/vanilla/gnu/dbg\libqp_cortex-m4f_cs.a(qte_arm.o)
 .data          0x20000000        0x0 D:\qp\qpc/ports/arm-cm/vanilla/gnu/dbg\libqp_cortex-m4f_cs.a(qvanilla.o)
 .data          0x20000000        0x0 D:\qp\qpc/ports/arm-cm/vanilla/gnu/dbg\libqp_cortex-m4f_cs.a(qhsm_ini.o)
 .data          0x20000000        0x0 D:\qp\qpc/ports/arm-cm/vanilla/gnu/dbg\libqp_cortex-m4f_cs.a(qhsm_dis.o)
 .data          0x20000000        0x0 D:\qp\qpc/ports/arm-cm/vanilla/gnu/dbg\libqp_cortex-m4f_cs.a(qa_get_.o)
 .data          0x20000000        0x0 D:\qp\qpc/ports/arm-cm/vanilla/gnu/dbg\libqp_cortex-m4f_cs.a(qeq_init.o)
 .data          0x20000000        0x0 D:\qp\qpc/ports/arm-cm/vanilla/gnu/dbg\libqp_cortex-m4f_cs.a(qf_act.o)
 .data          0x20000000        0x0 D:\qp\qpc/ports/arm-cm/vanilla/gnu/dbg\libqp_cortex-m4f_cs.a(qf_gc.o)
 .data          0x20000000        0x0 D:\qp\qpc/ports/arm-cm/vanilla/gnu/dbg\libqp_cortex-m4f_cs.a(qf_pool.o)
 .data          0x20000000        0x0 D:\qp\qpc/ports/arm-cm/vanilla/gnu/dbg\libqp_cortex-m4f_cs.a(qmp_init.o)
 .data          0x20000000        0x0 D:\qp\qpc/ports/arm-cm/vanilla/gnu/dbg\libqp_cortex-m4f_cs.a(qmp_put.o)
 .data          0x20000000        0x0 D:\qp\qpc/ports/arm-cm/vanilla/gnu/dbg\libqp_cortex-m4f_cs.a(qep.o)
 *(.data*)
                0x20000000                . = ALIGN (0x4)
                0x20000000                __data_end__ = .
                0x20000000                _edata = __data_end__

.igot.plt       0x20000000        0x0 load address 0x00000f80
 .igot.plt      0x00000000        0x0 dbg/blinky.o

.bss            0x20000000      0x14c load address 0x00000f80
                0x20000000                __bss_start__ = .
 *(.bss)
 .bss           0x20000000       0x58 dbg/blinky.o
 .bss           0x20000058        0x0 dbg/bsp.o
 .bss           0x20000058        0x0 dbg/startup_tm4c.o
 .bss           0x20000058        0x0 D:\qp\qpc/ports/arm-cm/vanilla/gnu/dbg\libqp_cortex-m4f_cs.a(qhsm_top.o)
 .bss           0x20000058        0x0 D:\qp\qpc/ports/arm-cm/vanilla/gnu/dbg\libqp_cortex-m4f_cs.a(qa_ctor.o)
 .bss           0x20000058        0x0 D:\qp\qpc/ports/arm-cm/vanilla/gnu/dbg\libqp_cortex-m4f_cs.a(qa_fifo.o)
 .bss           0x20000058        0x0 D:\qp\qpc/ports/arm-cm/vanilla/gnu/dbg\libqp_cortex-m4f_cs.a(qa_lifo.o)
 .bss           0x20000058        0x0 D:\qp\qpc/ports/arm-cm/vanilla/gnu/dbg\libqp_cortex-m4f_cs.a(qf_pwr2.o)
 .bss           0x20000058       0x20 D:\qp\qpc/ports/arm-cm/vanilla/gnu/dbg\libqp_cortex-m4f_cs.a(qf_tick.o)
                0x20000058                QF_timeEvtHead_
 .bss           0x20000078        0x0 D:\qp\qpc/ports/arm-cm/vanilla/gnu/dbg\libqp_cortex-m4f_cs.a(qte_ctor.o)
 .bss           0x20000078        0x0 D:\qp\qpc/ports/arm-cm/vanilla/gnu/dbg\libqp_cortex-m4f_cs.a(qte_arm.o)
 .bss           0x20000078        0xc D:\qp\qpc/ports/arm-cm/vanilla/gnu/dbg\libqp_cortex-m4f_cs.a(qvanilla.o)
                0x20000078                QF_readySet_
 .bss           0x20000084        0x0 D:\qp\qpc/ports/arm-cm/vanilla/gnu/dbg\libqp_cortex-m4f_cs.a(qhsm_ini.o)
 .bss           0x20000084        0x0 D:\qp\qpc/ports/arm-cm/vanilla/gnu/dbg\libqp_cortex-m4f_cs.a(qhsm_dis.o)
 .bss           0x20000084        0x0 D:\qp\qpc/ports/arm-cm/vanilla/gnu/dbg\libqp_cortex-m4f_cs.a(qa_get_.o)
 .bss           0x20000084        0x0 D:\qp\qpc/ports/arm-cm/vanilla/gnu/dbg\libqp_cortex-m4f_cs.a(qeq_init.o)
 .bss           0x20000084       0x88 D:\qp\qpc/ports/arm-cm/vanilla/gnu/dbg\libqp_cortex-m4f_cs.a(qf_act.o)
                0x20000084                QF_active_
                0x20000108                QF_intLockNest_
 .bss           0x2000010c        0x0 D:\qp\qpc/ports/arm-cm/vanilla/gnu/dbg\libqp_cortex-m4f_cs.a(qf_gc.o)
 .bss           0x2000010c       0x40 D:\qp\qpc/ports/arm-cm/vanilla/gnu/dbg\libqp_cortex-m4f_cs.a(qf_pool.o)
                0x2000010c                QF_maxPool_
                0x20000110                QF_pool_
 .bss           0x2000014c        0x0 D:\qp\qpc/ports/arm-cm/vanilla/gnu/dbg\libqp_cortex-m4f_cs.a(qmp_init.o)
 .bss           0x2000014c        0x0 D:\qp\qpc/ports/arm-cm/vanilla/gnu/dbg\libqp_cortex-m4f_cs.a(qmp_put.o)
 .bss           0x2000014c        0x0 D:\qp\qpc/ports/arm-cm/vanilla/gnu/dbg\libqp_cortex-m4f_cs.a(qep.o)
 *(.bss*)
 *(COMMON)
                0x2000014c                . = ALIGN (0x4)
                0x2000014c                _ebss = .
                0x2000014c                __bss_end__ = .
                0x2000014c                PROVIDE (end, _ebss)
                0x2000014c                PROVIDE (_end, _ebss)
                0x2000014c                PROVIDE (__end__, _ebss)

.heap           0x2000014c        0x0
                0x2000014c                __heap_start__ = .
                0x2000014c                . = (. + HEAP_SIZE)
                0x2000014c                . = ALIGN (0x4)
                0x2000014c                __heap_end__ = .

.stack          0x2000014c      0x3e8 load address 0x000010cc
                0x2000014c                __stack_start__ = .
                0x20000534                . = (. + STACK_SIZE)
 *fill*         0x2000014c      0x3e8 
                0x20000534                . = ALIGN (0x4)
                0x20000534                __c_stack_top__ = .
                0x20000534                __stack_end__ = .

/DISCARD/
 libc.a(*)
 libm.a(*)
 libgcc.a(*)
OUTPUT(dbg/blinky.elf elf32-littlearm)

.debug_info     0x00000000     0x6526
 .debug_info    0x00000000      0x886 dbg/blinky.o
 .debug_info    0x00000886     0x104c dbg/bsp.o
 .debug_info    0x000018d2      0x235 dbg/startup_tm4c.o
 .debug_info    0x00001b07      0x185 D:\qp\qpc/ports/arm-cm/vanilla/gnu/dbg\libqp_cortex-m4f_cs.a(qhsm_top.o)
 .debug_info    0x00001c8c      0x4d6 D:\qp\qpc/ports/arm-cm/vanilla/gnu/dbg\libqp_cortex-m4f_cs.a(qa_ctor.o)
 .debug_info    0x00002162      0x532 D:\qp\qpc/ports/arm-cm/vanilla/gnu/dbg\libqp_cortex-m4f_cs.a(qa_fifo.o)
 .debug_info    0x00002694      0x4ff D:\qp\qpc/ports/arm-cm/vanilla/gnu/dbg\libqp_cortex-m4f_cs.a(qa_lifo.o)
 .debug_info    0x00002b93       0xe0 D:\qp\qpc/ports/arm-cm/vanilla/gnu/dbg\libqp_cortex-m4f_cs.a(qf_pwr2.o)
 .debug_info    0x00002c73      0x64a D:\qp\qpc/ports/arm-cm/vanilla/gnu/dbg\libqp_cortex-m4f_cs.a(qf_tick.o)
 .debug_info    0x000032bd      0x520 D:\qp\qpc/ports/arm-cm/vanilla/gnu/dbg\libqp_cortex-m4f_cs.a(qte_ctor.o)
 .debug_info    0x000037dd      0x2ac D:\qp\qpc/ports/arm-cm/vanilla/gnu/dbg\libqp_cortex-m4f_cs.a(qte_arm.o)
 .debug_info    0x00003a89      0x72a D:\qp\qpc/ports/arm-cm/vanilla/gnu/dbg\libqp_cortex-m4f_cs.a(qvanilla.o)
 .debug_info    0x000041b3      0x52d D:\qp\qpc/ports/arm-cm/vanilla/gnu/dbg\libqp_cortex-m4f_cs.a(qhsm_ini.o)
 .debug_info    0x000046e0      0x652 D:\qp\qpc/ports/arm-cm/vanilla/gnu/dbg\libqp_cortex-m4f_cs.a(qhsm_dis.o)
 .debug_info    0x00004d32      0x595 D:\qp\qpc/ports/arm-cm/vanilla/gnu/dbg\libqp_cortex-m4f_cs.a(qa_get_.o)
 .debug_info    0x000052c7      0x1e2 D:\qp\qpc/ports/arm-cm/vanilla/gnu/dbg\libqp_cortex-m4f_cs.a(qeq_init.o)
 .debug_info    0x000054a9      0x4ca D:\qp\qpc/ports/arm-cm/vanilla/gnu/dbg\libqp_cortex-m4f_cs.a(qf_act.o)
 .debug_info    0x00005973      0x2d0 D:\qp\qpc/ports/arm-cm/vanilla/gnu/dbg\libqp_cortex-m4f_cs.a(qf_gc.o)
 .debug_info    0x00005c43      0x2cc D:\qp\qpc/ports/arm-cm/vanilla/gnu/dbg\libqp_cortex-m4f_cs.a(qf_pool.o)
 .debug_info    0x00005f0f      0x28d D:\qp\qpc/ports/arm-cm/vanilla/gnu/dbg\libqp_cortex-m4f_cs.a(qmp_init.o)
 .debug_info    0x0000619c      0x23c D:\qp\qpc/ports/arm-cm/vanilla/gnu/dbg\libqp_cortex-m4f_cs.a(qmp_put.o)
 .debug_info    0x000063d8      0x14e D:\qp\qpc/ports/arm-cm/vanilla/gnu/dbg\libqp_cortex-m4f_cs.a(qep.o)

.debug_abbrev   0x00000000     0x1f1b
 .debug_abbrev  0x00000000      0x23d dbg/blinky.o
 .debug_abbrev  0x0000023d      0x29c dbg/bsp.o
 .debug_abbrev  0x000004d9      0x149 dbg/startup_tm4c.o
 .debug_abbrev  0x00000622       0xd2 D:\qp\qpc/ports/arm-cm/vanilla/gnu/dbg\libqp_cortex-m4f_cs.a(qhsm_top.o)
 .debug_abbrev  0x000006f4      0x12a D:\qp\qpc/ports/arm-cm/vanilla/gnu/dbg\libqp_cortex-m4f_cs.a(qa_ctor.o)
 .debug_abbrev  0x0000081e      0x196 D:\qp\qpc/ports/arm-cm/vanilla/gnu/dbg\libqp_cortex-m4f_cs.a(qa_fifo.o)
 .debug_abbrev  0x000009b4      0x178 D:\qp\qpc/ports/arm-cm/vanilla/gnu/dbg\libqp_cortex-m4f_cs.a(qa_lifo.o)
 .debug_abbrev  0x00000b2c       0x5d D:\qp\qpc/ports/arm-cm/vanilla/gnu/dbg\libqp_cortex-m4f_cs.a(qf_pwr2.o)
 .debug_abbrev  0x00000b89      0x1d2 D:\qp\qpc/ports/arm-cm/vanilla/gnu/dbg\libqp_cortex-m4f_cs.a(qf_tick.o)
 .debug_abbrev  0x00000d5b      0x18e D:\qp\qpc/ports/arm-cm/vanilla/gnu/dbg\libqp_cortex-m4f_cs.a(qte_ctor.o)
 .debug_abbrev  0x00000ee9      0x17e D:\qp\qpc/ports/arm-cm/vanilla/gnu/dbg\libqp_cortex-m4f_cs.a(qte_arm.o)
 .debug_abbrev  0x00001067      0x22f D:\qp\qpc/ports/arm-cm/vanilla/gnu/dbg\libqp_cortex-m4f_cs.a(qvanilla.o)
 .debug_abbrev  0x00001296      0x1e6 D:\qp\qpc/ports/arm-cm/vanilla/gnu/dbg\libqp_cortex-m4f_cs.a(qhsm_ini.o)
 .debug_abbrev  0x0000147c      0x1a4 D:\qp\qpc/ports/arm-cm/vanilla/gnu/dbg\libqp_cortex-m4f_cs.a(qhsm_dis.o)
 .debug_abbrev  0x00001620      0x1a5 D:\qp\qpc/ports/arm-cm/vanilla/gnu/dbg\libqp_cortex-m4f_cs.a(qa_get_.o)
 .debug_abbrev  0x000017c5       0xc2 D:\qp\qpc/ports/arm-cm/vanilla/gnu/dbg\libqp_cortex-m4f_cs.a(qeq_init.o)
 .debug_abbrev  0x00001887      0x14d D:\qp\qpc/ports/arm-cm/vanilla/gnu/dbg\libqp_cortex-m4f_cs.a(qf_act.o)
 .debug_abbrev  0x000019d4      0x133 D:\qp\qpc/ports/arm-cm/vanilla/gnu/dbg\libqp_cortex-m4f_cs.a(qf_gc.o)
 .debug_abbrev  0x00001b07      0x11b D:\qp\qpc/ports/arm-cm/vanilla/gnu/dbg\libqp_cortex-m4f_cs.a(qf_pool.o)
 .debug_abbrev  0x00001c22      0x137 D:\qp\qpc/ports/arm-cm/vanilla/gnu/dbg\libqp_cortex-m4f_cs.a(qmp_init.o)
 .debug_abbrev  0x00001d59      0x10a D:\qp\qpc/ports/arm-cm/vanilla/gnu/dbg\libqp_cortex-m4f_cs.a(qmp_put.o)
 .debug_abbrev  0x00001e63       0xb8 D:\qp\qpc/ports/arm-cm/vanilla/gnu/dbg\libqp_cortex-m4f_cs.a(qep.o)

.debug_loc      0x00000000     0x131f
 .debug_loc     0x00000000      0x2b7 dbg/blinky.o
 .debug_loc     0x000002b7      0x170 dbg/bsp.o
 .debug_loc     0x00000427       0x40 dbg/startup_tm4c.o
 .debug_loc     0x00000467       0x21 D:\qp\qpc/ports/arm-cm/vanilla/gnu/dbg\libqp_cortex-m4f_cs.a(qhsm_top.o)
 .debug_loc     0x00000488       0x5f D:\qp\qpc/ports/arm-cm/vanilla/gnu/dbg\libqp_cortex-m4f_cs.a(qa_ctor.o)
 .debug_loc     0x000004e7      0x10d D:\qp\qpc/ports/arm-cm/vanilla/gnu/dbg\libqp_cortex-m4f_cs.a(qa_fifo.o)
 .debug_loc     0x000005f4      0x128 D:\qp\qpc/ports/arm-cm/vanilla/gnu/dbg\libqp_cortex-m4f_cs.a(qa_lifo.o)
 .debug_loc     0x0000071c      0x108 D:\qp\qpc/ports/arm-cm/vanilla/gnu/dbg\libqp_cortex-m4f_cs.a(qf_tick.o)
 .debug_loc     0x00000824       0x9b D:\qp\qpc/ports/arm-cm/vanilla/gnu/dbg\libqp_cortex-m4f_cs.a(qte_ctor.o)
 .debug_loc     0x000008bf       0x9e D:\qp\qpc/ports/arm-cm/vanilla/gnu/dbg\libqp_cortex-m4f_cs.a(qte_arm.o)
 .debug_loc     0x0000095d      0x176 D:\qp\qpc/ports/arm-cm/vanilla/gnu/dbg\libqp_cortex-m4f_cs.a(qvanilla.o)
 .debug_loc     0x00000ad3       0xd0 D:\qp\qpc/ports/arm-cm/vanilla/gnu/dbg\libqp_cortex-m4f_cs.a(qhsm_ini.o)
 .debug_loc     0x00000ba3      0x3ba D:\qp\qpc/ports/arm-cm/vanilla/gnu/dbg\libqp_cortex-m4f_cs.a(qhsm_dis.o)
 .debug_loc     0x00000f5d       0xd3 D:\qp\qpc/ports/arm-cm/vanilla/gnu/dbg\libqp_cortex-m4f_cs.a(qa_get_.o)
 .debug_loc     0x00001030       0x1f D:\qp\qpc/ports/arm-cm/vanilla/gnu/dbg\libqp_cortex-m4f_cs.a(qeq_init.o)
 .debug_loc     0x0000104f       0xd8 D:\qp\qpc/ports/arm-cm/vanilla/gnu/dbg\libqp_cortex-m4f_cs.a(qf_act.o)
 .debug_loc     0x00001127       0x51 D:\qp\qpc/ports/arm-cm/vanilla/gnu/dbg\libqp_cortex-m4f_cs.a(qf_gc.o)
 .debug_loc     0x00001178       0x7a D:\qp\qpc/ports/arm-cm/vanilla/gnu/dbg\libqp_cortex-m4f_cs.a(qf_pool.o)
 .debug_loc     0x000011f2       0xd1 D:\qp\qpc/ports/arm-cm/vanilla/gnu/dbg\libqp_cortex-m4f_cs.a(qmp_init.o)
 .debug_loc     0x000012c3       0x5c D:\qp\qpc/ports/arm-cm/vanilla/gnu/dbg\libqp_cortex-m4f_cs.a(qmp_put.o)

.debug_aranges  0x00000000      0x2b0
 .debug_aranges
                0x00000000       0x20 dbg/blinky.o
 .debug_aranges
                0x00000020       0x20 dbg/bsp.o
 .debug_aranges
                0x00000040       0x20 dbg/startup_tm4c.o
 .debug_aranges
                0x00000060       0x20 D:\qp\qpc/ports/arm-cm/vanilla/gnu/dbg\libqp_cortex-m4f_cs.a(qhsm_top.o)
 .debug_aranges
                0x00000080       0x20 D:\qp\qpc/ports/arm-cm/vanilla/gnu/dbg\libqp_cortex-m4f_cs.a(qa_ctor.o)
 .debug_aranges
                0x000000a0       0x20 D:\qp\qpc/ports/arm-cm/vanilla/gnu/dbg\libqp_cortex-m4f_cs.a(qa_fifo.o)
 .debug_aranges
                0x000000c0       0x20 D:\qp\qpc/ports/arm-cm/vanilla/gnu/dbg\libqp_cortex-m4f_cs.a(qa_lifo.o)
 .debug_aranges
                0x000000e0       0x18 D:\qp\qpc/ports/arm-cm/vanilla/gnu/dbg\libqp_cortex-m4f_cs.a(qf_pwr2.o)
 .debug_aranges
                0x000000f8       0x20 D:\qp\qpc/ports/arm-cm/vanilla/gnu/dbg\libqp_cortex-m4f_cs.a(qf_tick.o)
 .debug_aranges
                0x00000118       0x20 D:\qp\qpc/ports/arm-cm/vanilla/gnu/dbg\libqp_cortex-m4f_cs.a(qte_ctor.o)
 .debug_aranges
                0x00000138       0x20 D:\qp\qpc/ports/arm-cm/vanilla/gnu/dbg\libqp_cortex-m4f_cs.a(qte_arm.o)
 .debug_aranges
                0x00000158       0x20 D:\qp\qpc/ports/arm-cm/vanilla/gnu/dbg\libqp_cortex-m4f_cs.a(qvanilla.o)
 .debug_aranges
                0x00000178       0x20 D:\qp\qpc/ports/arm-cm/vanilla/gnu/dbg\libqp_cortex-m4f_cs.a(qhsm_ini.o)
 .debug_aranges
                0x00000198       0x20 D:\qp\qpc/ports/arm-cm/vanilla/gnu/dbg\libqp_cortex-m4f_cs.a(qhsm_dis.o)
 .debug_aranges
                0x000001b8       0x20 D:\qp\qpc/ports/arm-cm/vanilla/gnu/dbg\libqp_cortex-m4f_cs.a(qa_get_.o)
 .debug_aranges
                0x000001d8       0x20 D:\qp\qpc/ports/arm-cm/vanilla/gnu/dbg\libqp_cortex-m4f_cs.a(qeq_init.o)
 .debug_aranges
                0x000001f8       0x20 D:\qp\qpc/ports/arm-cm/vanilla/gnu/dbg\libqp_cortex-m4f_cs.a(qf_act.o)
 .debug_aranges
                0x00000218       0x20 D:\qp\qpc/ports/arm-cm/vanilla/gnu/dbg\libqp_cortex-m4f_cs.a(qf_gc.o)
 .debug_aranges
                0x00000238       0x20 D:\qp\qpc/ports/arm-cm/vanilla/gnu/dbg\libqp_cortex-m4f_cs.a(qf_pool.o)
 .debug_aranges
                0x00000258       0x20 D:\qp\qpc/ports/arm-cm/vanilla/gnu/dbg\libqp_cortex-m4f_cs.a(qmp_init.o)
 .debug_aranges
                0x00000278       0x20 D:\qp\qpc/ports/arm-cm/vanilla/gnu/dbg\libqp_cortex-m4f_cs.a(qmp_put.o)
 .debug_aranges
                0x00000298       0x18 D:\qp\qpc/ports/arm-cm/vanilla/gnu/dbg\libqp_cortex-m4f_cs.a(qep.o)

.debug_line     0x00000000     0x1818
 .debug_line    0x00000000      0x107 dbg/blinky.o
 .debug_line    0x00000107      0x156 dbg/bsp.o
 .debug_line    0x0000025d       0x76 dbg/startup_tm4c.o
 .debug_line    0x000002d3       0xe0 D:\qp\qpc/ports/arm-cm/vanilla/gnu/dbg\libqp_cortex-m4f_cs.a(qhsm_top.o)
 .debug_line    0x000003b3       0xf4 D:\qp\qpc/ports/arm-cm/vanilla/gnu/dbg\libqp_cortex-m4f_cs.a(qa_ctor.o)
 .debug_line    0x000004a7      0x14c D:\qp\qpc/ports/arm-cm/vanilla/gnu/dbg\libqp_cortex-m4f_cs.a(qa_fifo.o)
 .debug_line    0x000005f3      0x133 D:\qp\qpc/ports/arm-cm/vanilla/gnu/dbg\libqp_cortex-m4f_cs.a(qa_lifo.o)
 .debug_line    0x00000726       0xa7 D:\qp\qpc/ports/arm-cm/vanilla/gnu/dbg\libqp_cortex-m4f_cs.a(qf_pwr2.o)
 .debug_line    0x000007cd      0x13a D:\qp\qpc/ports/arm-cm/vanilla/gnu/dbg\libqp_cortex-m4f_cs.a(qf_tick.o)
 .debug_line    0x00000907      0x114 D:\qp\qpc/ports/arm-cm/vanilla/gnu/dbg\libqp_cortex-m4f_cs.a(qte_ctor.o)
 .debug_line    0x00000a1b      0x126 D:\qp\qpc/ports/arm-cm/vanilla/gnu/dbg\libqp_cortex-m4f_cs.a(qte_arm.o)
 .debug_line    0x00000b41      0x13f D:\qp\qpc/ports/arm-cm/vanilla/gnu/dbg\libqp_cortex-m4f_cs.a(qvanilla.o)
 .debug_line    0x00000c80      0x14f D:\qp\qpc/ports/arm-cm/vanilla/gnu/dbg\libqp_cortex-m4f_cs.a(qhsm_ini.o)
 .debug_line    0x00000dcf      0x1c4 D:\qp\qpc/ports/arm-cm/vanilla/gnu/dbg\libqp_cortex-m4f_cs.a(qhsm_dis.o)
 .debug_line    0x00000f93      0x152 D:\qp\qpc/ports/arm-cm/vanilla/gnu/dbg\libqp_cortex-m4f_cs.a(qa_get_.o)
 .debug_line    0x000010e5       0xe9 D:\qp\qpc/ports/arm-cm/vanilla/gnu/dbg\libqp_cortex-m4f_cs.a(qeq_init.o)
 .debug_line    0x000011ce      0x121 D:\qp\qpc/ports/arm-cm/vanilla/gnu/dbg\libqp_cortex-m4f_cs.a(qf_act.o)
 .debug_line    0x000012ef      0x107 D:\qp\qpc/ports/arm-cm/vanilla/gnu/dbg\libqp_cortex-m4f_cs.a(qf_gc.o)
 .debug_line    0x000013f6      0x10c D:\qp\qpc/ports/arm-cm/vanilla/gnu/dbg\libqp_cortex-m4f_cs.a(qf_pool.o)
 .debug_line    0x00001502      0x12b D:\qp\qpc/ports/arm-cm/vanilla/gnu/dbg\libqp_cortex-m4f_cs.a(qmp_init.o)
 .debug_line    0x0000162d      0x113 D:\qp\qpc/ports/arm-cm/vanilla/gnu/dbg\libqp_cortex-m4f_cs.a(qmp_put.o)
 .debug_line    0x00001740       0xd8 D:\qp\qpc/ports/arm-cm/vanilla/gnu/dbg\libqp_cortex-m4f_cs.a(qep.o)

.debug_str      0x00000000     0x14c3
 .debug_str     0x00000000      0x3d8 dbg/blinky.o
                                0x448 (size before relaxing)
 .debug_str     0x000003d8      0xb0f dbg/bsp.o
                                0xcd3 (size before relaxing)
 .debug_str     0x00000ee7       0xcf dbg/startup_tm4c.o
                                0x14a (size before relaxing)
 .debug_str     0x00000fb6       0x4e D:\qp\qpc/ports/arm-cm/vanilla/gnu/dbg\libqp_cortex-m4f_cs.a(qhsm_top.o)
                                0x1aa (size before relaxing)
 .debug_str     0x00001004       0x2f D:\qp\qpc/ports/arm-cm/vanilla/gnu/dbg\libqp_cortex-m4f_cs.a(qa_ctor.o)
                                0x292 (size before relaxing)
 .debug_str     0x00001033       0x77 D:\qp\qpc/ports/arm-cm/vanilla/gnu/dbg\libqp_cortex-m4f_cs.a(qa_fifo.o)
                                0x2bb (size before relaxing)
 .debug_str     0x000010aa       0x31 D:\qp\qpc/ports/arm-cm/vanilla/gnu/dbg\libqp_cortex-m4f_cs.a(qa_lifo.o)
                                0x2b1 (size before relaxing)
 .debug_str     0x000010db       0x2f D:\qp\qpc/ports/arm-cm/vanilla/gnu/dbg\libqp_cortex-m4f_cs.a(qf_pwr2.o)
                                0x11d (size before relaxing)
 .debug_str     0x0000110a       0x5c D:\qp\qpc/ports/arm-cm/vanilla/gnu/dbg\libqp_cortex-m4f_cs.a(qf_tick.o)
                                0x309 (size before relaxing)
 .debug_str     0x00001166       0x21 D:\qp\qpc/ports/arm-cm/vanilla/gnu/dbg\libqp_cortex-m4f_cs.a(qte_ctor.o)
                                0x2ea (size before relaxing)
 .debug_str     0x00001187       0x27 D:\qp\qpc/ports/arm-cm/vanilla/gnu/dbg\libqp_cortex-m4f_cs.a(qte_arm.o)
                                0x1ec (size before relaxing)
 .debug_str     0x000011ae       0x9b D:\qp\qpc/ports/arm-cm/vanilla/gnu/dbg\libqp_cortex-m4f_cs.a(qvanilla.o)
                                0x347 (size before relaxing)
 .debug_str     0x00001249       0x6e D:\qp\qpc/ports/arm-cm/vanilla/gnu/dbg\libqp_cortex-m4f_cs.a(qhsm_ini.o)
                                0x317 (size before relaxing)
 .debug_str     0x000012b7       0x30 D:\qp\qpc/ports/arm-cm/vanilla/gnu/dbg\libqp_cortex-m4f_cs.a(qhsm_dis.o)
                                0x304 (size before relaxing)
 .debug_str     0x000012e7       0x2f D:\qp\qpc/ports/arm-cm/vanilla/gnu/dbg\libqp_cortex-m4f_cs.a(qa_get_.o)
                                0x2ca (size before relaxing)
 .debug_str     0x00001316       0x21 D:\qp\qpc/ports/arm-cm/vanilla/gnu/dbg\libqp_cortex-m4f_cs.a(qeq_init.o)
                                0x17d (size before relaxing)
 .debug_str     0x00001337       0x2f D:\qp\qpc/ports/arm-cm/vanilla/gnu/dbg\libqp_cortex-m4f_cs.a(qf_act.o)
                                0x28a (size before relaxing)
 .debug_str     0x00001366       0x84 D:\qp\qpc/ports/arm-cm/vanilla/gnu/dbg\libqp_cortex-m4f_cs.a(qf_gc.o)
                                0x1c6 (size before relaxing)
 .debug_str     0x000013ea       0x5a D:\qp\qpc/ports/arm-cm/vanilla/gnu/dbg\libqp_cortex-m4f_cs.a(qf_pool.o)
                                0x1cd (size before relaxing)
 .debug_str     0x00001444       0x42 D:\qp\qpc/ports/arm-cm/vanilla/gnu/dbg\libqp_cortex-m4f_cs.a(qmp_init.o)
                                0x1bb (size before relaxing)
 .debug_str     0x00001486       0x20 D:\qp\qpc/ports/arm-cm/vanilla/gnu/dbg\libqp_cortex-m4f_cs.a(qmp_put.o)
                                0x197 (size before relaxing)
 .debug_str     0x000014a6       0x1d D:\qp\qpc/ports/arm-cm/vanilla/gnu/dbg\libqp_cortex-m4f_cs.a(qep.o)
                                0x19c (size before relaxing)

.comment        0x00000000       0x2b
 .comment       0x00000000       0x2b dbg/blinky.o
                                 0x2c (size before relaxing)
 .comment       0x00000000       0x2c dbg/bsp.o
 .comment       0x00000000       0x2c dbg/startup_tm4c.o
 .comment       0x00000000       0x2c D:\qp\qpc/ports/arm-cm/vanilla/gnu/dbg\libqp_cortex-m4f_cs.a(qhsm_top.o)
 .comment       0x00000000       0x2c D:\qp\qpc/ports/arm-cm/vanilla/gnu/dbg\libqp_cortex-m4f_cs.a(qa_ctor.o)
 .comment       0x00000000       0x2c D:\qp\qpc/ports/arm-cm/vanilla/gnu/dbg\libqp_cortex-m4f_cs.a(qa_fifo.o)
 .comment       0x00000000       0x2c D:\qp\qpc/ports/arm-cm/vanilla/gnu/dbg\libqp_cortex-m4f_cs.a(qa_lifo.o)
 .comment       0x00000000       0x2c D:\qp\qpc/ports/arm-cm/vanilla/gnu/dbg\libqp_cortex-m4f_cs.a(qf_pwr2.o)
 .comment       0x00000000       0x2c D:\qp\qpc/ports/arm-cm/vanilla/gnu/dbg\libqp_cortex-m4f_cs.a(qf_tick.o)
 .comment       0x00000000       0x2c D:\qp\qpc/ports/arm-cm/vanilla/gnu/dbg\libqp_cortex-m4f_cs.a(qte_ctor.o)
 .comment       0x00000000       0x2c D:\qp\qpc/ports/arm-cm/vanilla/gnu/dbg\libqp_cortex-m4f_cs.a(qte_arm.o)
 .comment       0x00000000       0x2c D:\qp\qpc/ports/arm-cm/vanilla/gnu/dbg\libqp_cortex-m4f_cs.a(qvanilla.o)
 .comment       0x00000000       0x2c D:\qp\qpc/ports/arm-cm/vanilla/gnu/dbg\libqp_cortex-m4f_cs.a(qhsm_ini.o)
 .comment       0x00000000       0x2c D:\qp\qpc/ports/arm-cm/vanilla/gnu/dbg\libqp_cortex-m4f_cs.a(qhsm_dis.o)
 .comment       0x00000000       0x2c D:\qp\qpc/ports/arm-cm/vanilla/gnu/dbg\libqp_cortex-m4f_cs.a(qa_get_.o)
 .comment       0x00000000       0x2c D:\qp\qpc/ports/arm-cm/vanilla/gnu/dbg\libqp_cortex-m4f_cs.a(qeq_init.o)
 .comment       0x00000000       0x2c D:\qp\qpc/ports/arm-cm/vanilla/gnu/dbg\libqp_cortex-m4f_cs.a(qf_act.o)
 .comment       0x00000000       0x2c D:\qp\qpc/ports/arm-cm/vanilla/gnu/dbg\libqp_cortex-m4f_cs.a(qf_gc.o)
 .comment       0x00000000       0x2c D:\qp\qpc/ports/arm-cm/vanilla/gnu/dbg\libqp_cortex-m4f_cs.a(qf_pool.o)
 .comment       0x00000000       0x2c D:\qp\qpc/ports/arm-cm/vanilla/gnu/dbg\libqp_cortex-m4f_cs.a(qmp_init.o)
 .comment       0x00000000       0x2c D:\qp\qpc/ports/arm-cm/vanilla/gnu/dbg\libqp_cortex-m4f_cs.a(qmp_put.o)
 .comment       0x00000000       0x2c D:\qp\qpc/ports/arm-cm/vanilla/gnu/dbg\libqp_cortex-m4f_cs.a(qep.o)

.ARM.attributes
                0x00000000       0x37
 .ARM.attributes
                0x00000000       0x37 dbg/blinky.o
 .ARM.attributes
                0x00000037       0x37 dbg/bsp.o
 .ARM.attributes
                0x0000006e       0x37 dbg/startup_tm4c.o
 .ARM.attributes
                0x000000a5       0x37 D:\qp\qpc/ports/arm-cm/vanilla/gnu/dbg\libqp_cortex-m4f_cs.a(qhsm_top.o)
 .ARM.attributes
                0x000000dc       0x37 D:\qp\qpc/ports/arm-cm/vanilla/gnu/dbg\libqp_cortex-m4f_cs.a(qa_ctor.o)
 .ARM.attributes
                0x00000113       0x37 D:\qp\qpc/ports/arm-cm/vanilla/gnu/dbg\libqp_cortex-m4f_cs.a(qa_fifo.o)
 .ARM.attributes
                0x0000014a       0x37 D:\qp\qpc/ports/arm-cm/vanilla/gnu/dbg\libqp_cortex-m4f_cs.a(qa_lifo.o)
 .ARM.attributes
                0x00000181       0x37 D:\qp\qpc/ports/arm-cm/vanilla/gnu/dbg\libqp_cortex-m4f_cs.a(qf_pwr2.o)
 .ARM.attributes
                0x000001b8       0x37 D:\qp\qpc/ports/arm-cm/vanilla/gnu/dbg\libqp_cortex-m4f_cs.a(qf_tick.o)
 .ARM.attributes
                0x000001ef       0x37 D:\qp\qpc/ports/arm-cm/vanilla/gnu/dbg\libqp_cortex-m4f_cs.a(qte_ctor.o)
 .ARM.attributes
                0x00000226       0x37 D:\qp\qpc/ports/arm-cm/vanilla/gnu/dbg\libqp_cortex-m4f_cs.a(qte_arm.o)
 .ARM.attributes
                0x0000025d       0x37 D:\qp\qpc/ports/arm-cm/vanilla/gnu/dbg\libqp_cortex-m4f_cs.a(qvanilla.o)
 .ARM.attributes
                0x00000294       0x37 D:\qp\qpc/ports/arm-cm/vanilla/gnu/dbg\libqp_cortex-m4f_cs.a(qhsm_ini.o)
 .ARM.attributes
                0x000002cb       0x37 D:\qp\qpc/ports/arm-cm/vanilla/gnu/dbg\libqp_cortex-m4f_cs.a(qhsm_dis.o)
 .ARM.attributes
                0x00000302       0x37 D:\qp\qpc/ports/arm-cm/vanilla/gnu/dbg\libqp_cortex-m4f_cs.a(qa_get_.o)
 .ARM.attributes
                0x00000339       0x37 D:\qp\qpc/ports/arm-cm/vanilla/gnu/dbg\libqp_cortex-m4f_cs.a(qeq_init.o)
 .ARM.attributes
                0x00000370       0x37 D:\qp\qpc/ports/arm-cm/vanilla/gnu/dbg\libqp_cortex-m4f_cs.a(qf_act.o)
 .ARM.attributes
                0x000003a7       0x37 D:\qp\qpc/ports/arm-cm/vanilla/gnu/dbg\libqp_cortex-m4f_cs.a(qf_gc.o)
 .ARM.attributes
                0x000003de       0x37 D:\qp\qpc/ports/arm-cm/vanilla/gnu/dbg\libqp_cortex-m4f_cs.a(qf_pool.o)
 .ARM.attributes
                0x00000415       0x37 D:\qp\qpc/ports/arm-cm/vanilla/gnu/dbg\libqp_cortex-m4f_cs.a(qmp_init.o)
 .ARM.attributes
                0x0000044c       0x37 D:\qp\qpc/ports/arm-cm/vanilla/gnu/dbg\libqp_cortex-m4f_cs.a(qmp_put.o)
 .ARM.attributes
                0x00000483       0x37 D:\qp\qpc/ports/arm-cm/vanilla/gnu/dbg\libqp_cortex-m4f_cs.a(qep.o)

.debug_frame    0x00000000      0x568
 .debug_frame   0x00000000       0x8c dbg/blinky.o
 .debug_frame   0x0000008c       0xc0 dbg/bsp.o
 .debug_frame   0x0000014c       0x5c dbg/startup_tm4c.o
 .debug_frame   0x000001a8       0x20 D:\qp\qpc/ports/arm-cm/vanilla/gnu/dbg\libqp_cortex-m4f_cs.a(qhsm_top.o)
 .debug_frame   0x000001c8       0x28 D:\qp\qpc/ports/arm-cm/vanilla/gnu/dbg\libqp_cortex-m4f_cs.a(qa_ctor.o)
 .debug_frame   0x000001f0       0x2c D:\qp\qpc/ports/arm-cm/vanilla/gnu/dbg\libqp_cortex-m4f_cs.a(qa_fifo.o)
 .debug_frame   0x0000021c       0x2c D:\qp\qpc/ports/arm-cm/vanilla/gnu/dbg\libqp_cortex-m4f_cs.a(qa_lifo.o)
 .debug_frame   0x00000248       0x4c D:\qp\qpc/ports/arm-cm/vanilla/gnu/dbg\libqp_cortex-m4f_cs.a(qf_tick.o)
 .debug_frame   0x00000294       0x30 D:\qp\qpc/ports/arm-cm/vanilla/gnu/dbg\libqp_cortex-m4f_cs.a(qte_ctor.o)
 .debug_frame   0x000002c4       0x30 D:\qp\qpc/ports/arm-cm/vanilla/gnu/dbg\libqp_cortex-m4f_cs.a(qte_arm.o)
 .debug_frame   0x000002f4       0x90 D:\qp\qpc/ports/arm-cm/vanilla/gnu/dbg\libqp_cortex-m4f_cs.a(qvanilla.o)
 .debug_frame   0x00000384       0x48 D:\qp\qpc/ports/arm-cm/vanilla/gnu/dbg\libqp_cortex-m4f_cs.a(qhsm_ini.o)
 .debug_frame   0x000003cc       0x38 D:\qp\qpc/ports/arm-cm/vanilla/gnu/dbg\libqp_cortex-m4f_cs.a(qhsm_dis.o)
 .debug_frame   0x00000404       0x44 D:\qp\qpc/ports/arm-cm/vanilla/gnu/dbg\libqp_cortex-m4f_cs.a(qa_get_.o)
 .debug_frame   0x00000448       0x20 D:\qp\qpc/ports/arm-cm/vanilla/gnu/dbg\libqp_cortex-m4f_cs.a(qeq_init.o)
 .debug_frame   0x00000468       0x44 D:\qp\qpc/ports/arm-cm/vanilla/gnu/dbg\libqp_cortex-m4f_cs.a(qf_act.o)
 .debug_frame   0x000004ac       0x2c D:\qp\qpc/ports/arm-cm/vanilla/gnu/dbg\libqp_cortex-m4f_cs.a(qf_gc.o)
 .debug_frame   0x000004d8       0x30 D:\qp\qpc/ports/arm-cm/vanilla/gnu/dbg\libqp_cortex-m4f_cs.a(qf_pool.o)
 .debug_frame   0x00000508       0x34 D:\qp\qpc/ports/arm-cm/vanilla/gnu/dbg\libqp_cortex-m4f_cs.a(qmp_init.o)
 .debug_frame   0x0000053c       0x2c D:\qp\qpc/ports/arm-cm/vanilla/gnu/dbg\libqp_cortex-m4f_cs.a(qmp_put.o)

.debug_ranges   0x00000000       0x40
 .debug_ranges  0x00000000       0x20 D:\qp\qpc/ports/arm-cm/vanilla/gnu/dbg\libqp_cortex-m4f_cs.a(qhsm_ini.o)
 .debug_ranges  0x00000020       0x20 D:\qp\qpc/ports/arm-cm/vanilla/gnu/dbg\libqp_cortex-m4f_cs.a(qhsm_dis.o)
